# SymbolsHelper-Confirmed: 1.50.0 amd64
libplasmamediacenter.so.2 libplasmamediacenter2 #MINVER#
 _ZN10ObjectPair11qt_metacallEN11QMetaObject4CallEiPPv@Base 1.50.0
 _ZN10ObjectPair11qt_metacastEPKc@Base 1.50.0
 _ZN10ObjectPair12firstChangedEv@Base 1.50.0
 _ZN10ObjectPair13secondChangedEv@Base 1.50.0
 _ZN10ObjectPair16staticMetaObjectE@Base 1.50.0
 _ZN10ObjectPair8setFirstEP7QObject@Base 1.50.0
 _ZN10ObjectPair9setSecondEP7QObject@Base 1.50.0
 _ZN10ObjectPairC1EP7QObject@Base 1.50.0
 _ZN10ObjectPairC2EP7QObject@Base 1.50.0
 _ZN10ObjectPairD0Ev@Base 1.50.0
 _ZN10ObjectPairD1Ev@Base 1.50.0
 _ZN10ObjectPairD2Ev@Base 1.50.0
 _ZN11MediaCenter19AbstractMediaSource11qt_metacallEN11QMetaObject4CallEiPPv@Base 1.50.0
 _ZN11MediaCenter19AbstractMediaSource11qt_metacastEPKc@Base 1.50.0
 _ZN11MediaCenter19AbstractMediaSource15setMediaLibraryEP12MediaLibrary@Base 1.50.0
 _ZN11MediaCenter19AbstractMediaSource16staticMetaObjectE@Base 1.50.0
 _ZN11MediaCenter19AbstractMediaSourceC1EP7QObjectRK5QListI8QVariantE@Base 1.50.0
 _ZN11MediaCenter19AbstractMediaSourceC2EP7QObjectRK5QListI8QVariantE@Base 1.50.0
 _ZN11MediaCenter19AbstractMediaSourceD0Ev@Base 1.50.0
 _ZN11MediaCenter19AbstractMediaSourceD1Ev@Base 1.50.0
 _ZN11MediaCenter19AbstractMediaSourceD2Ev@Base 1.50.0
 _ZN11MediaCenter19dataDirForComponentERK7QString@Base 1.50.0
 _ZN11MediaCenter23AbstractBrowsingBackend10setButtonsERK11QStringList@Base 1.50.0
 _ZN11MediaCenter23AbstractBrowsingBackend11busyChangedEv@Base 1.50.0
 _ZN11MediaCenter23AbstractBrowsingBackend11qt_metacallEN11QMetaObject4CallEiPPv@Base 1.50.0
 _ZN11MediaCenter23AbstractBrowsingBackend11qt_metacastEPKc@Base 1.50.0
 _ZN11MediaCenter23AbstractBrowsingBackend12goOneLevelUpEv@Base 1.50.0
 _ZN11MediaCenter23AbstractBrowsingBackend12replaceModelEP8PmcModelS2_@Base 1.50.0
 _ZN11MediaCenter23AbstractBrowsingBackend12showCustomUiERK7QString@Base 1.50.0
 _ZN11MediaCenter23AbstractBrowsingBackend13modelsChangedEv@Base 1.50.0
 _ZN11MediaCenter23AbstractBrowsingBackend13setPluginInfoERK11KPluginInfo@Base 1.50.0
 _ZN11MediaCenter23AbstractBrowsingBackend14buttonsChangedEv@Base 1.50.0
 _ZN11MediaCenter23AbstractBrowsingBackend16staticMetaObjectE@Base 1.50.0
 _ZN11MediaCenter23AbstractBrowsingBackend17handleButtonClickERK7QString@Base 1.50.0
 _ZN11MediaCenter23AbstractBrowsingBackend17pmcRuntimeChangedEv@Base 1.50.0
 _ZN11MediaCenter23AbstractBrowsingBackend17searchTermChangedEv@Base 1.50.0
 _ZN11MediaCenter23AbstractBrowsingBackend4backEP7QObject@Base 1.50.0
 _ZN11MediaCenter23AbstractBrowsingBackend4initEv@Base 1.50.0
 _ZN11MediaCenter23AbstractBrowsingBackend5errorERK7QString@Base 1.50.0
 _ZN11MediaCenter23AbstractBrowsingBackend5modelEv@Base 1.50.0
 _ZN11MediaCenter23AbstractBrowsingBackend6expandEi@Base 1.50.0
 _ZN11MediaCenter23AbstractBrowsingBackend6expandEiP18QAbstractItemModel@Base 1.50.0
 _ZN11MediaCenter23AbstractBrowsingBackend6modelsEv@Base 1.50.0
 _ZN11MediaCenter23AbstractBrowsingBackend6searchERK7QString@Base 1.50.0
 _ZN11MediaCenter23AbstractBrowsingBackend8addModelEP8PmcModel@Base 1.50.0
 _ZN11MediaCenter23AbstractBrowsingBackend8allMediaEv@Base 1.50.0
 _ZN11MediaCenter23AbstractBrowsingBackend8setModelEP18QAbstractItemModel@Base 1.50.0
 _ZN11MediaCenter23AbstractBrowsingBackend8setModelEP8PmcModel@Base 1.50.0
 _ZN11MediaCenter23AbstractBrowsingBackendC1EP7QObjectRK5QListI8QVariantE@Base 1.50.0
 _ZN11MediaCenter23AbstractBrowsingBackendC2EP7QObjectRK5QListI8QVariantE@Base 1.50.0
 _ZN11MediaCenter23AbstractBrowsingBackendD0Ev@Base 1.50.0
 _ZN11MediaCenter23AbstractBrowsingBackendD1Ev@Base 1.50.0
 _ZN11MediaCenter23AbstractBrowsingBackendD2Ev@Base 1.50.0
 _ZN11MediaCenter26appendAdditionalMediaRolesERK5QHashIi10QByteArrayE@Base 1.50.0
 _ZN11RuntimeData10toggleMuteEv@Base 1.50.0
 _ZN11RuntimeData10urlChangedE4QUrl@Base 1.50.0
 _ZN11RuntimeData11muteChangedEb@Base 1.50.0
 _ZN11RuntimeData11qt_metacallEN11QMetaObject4CallEiPPv@Base 1.50.0
 _ZN11RuntimeData11qt_metacastEPKc@Base 1.50.0
 _ZN11RuntimeData13statusChangedENS_9PmcStatusE@Base 1.50.0
 _ZN11RuntimeData13volumeChangedEd@Base 1.50.0
 _ZN11RuntimeData15positionChangedEi@Base 1.50.0
 _ZN11RuntimeData16staticMetaObjectE@Base 1.50.0
 _ZN11RuntimeData16totalTimeChangedEi@Base 1.50.0
 _ZN11RuntimeData18currentTimeChangedEi@Base 1.50.0
 _ZN11RuntimeData24userTrigerredStopChangedEv@Base 1.50.0
 _ZN11RuntimeData4stopEv@Base 1.50.0
 _ZN11RuntimeData7playUrlE4QUrl@Base 1.50.0
 _ZN11RuntimeData9playPauseEv@Base 1.50.0
 _ZN11RuntimeData9setVolumeEd@Base 1.50.0
 _ZN11RuntimeDataC1Ev@Base 1.50.0
 _ZN11RuntimeDataC2Ev@Base 1.50.0
 _ZN11RuntimeDataD0Ev@Base 1.50.0
 _ZN11RuntimeDataD1Ev@Base 1.50.0
 _ZN11RuntimeDataD2Ev@Base 1.50.0
 _ZN12MediaLibrary10newArtistsERK5QListI14QSharedPointerI9PmcArtistEE@Base 1.50.0
 _ZN12MediaLibrary11initializedEv@Base 1.50.0
 _ZN12MediaLibrary11qt_metacallEN11QMetaObject4CallEiPPv@Base 1.50.0
 _ZN12MediaLibrary11qt_metacastEPKc@Base 1.50.0
 _ZN12MediaLibrary11takeRequestEv@Base 1.50.0
 _ZN12MediaLibrary11updateMediaERK5QHashIi8QVariantE@Base 1.50.0
 _ZN12MediaLibrary11updateMediaERK7QStringRK5QHashIi8QVariantE@Base 1.50.0
 _ZN12MediaLibrary12emitNewMediaEv@Base 1.50.0
 (optional=templinst)_ZN12MediaLibrary16addAlbumOrArtistI5Album8PmcAlbumEEvRK14QSharedPointerIT_ER6QMutexR5QListIS5_ERSA_IS3_IT0_EE@Base 1.50.0
 (optional=templinst)_ZN12MediaLibrary16addAlbumOrArtistI6Artist9PmcArtistEEvRK14QSharedPointerIT_ER6QMutexR5QListIS5_ERSA_IS3_IT0_EE@Base 1.50.0
 _ZN12MediaLibrary16staticMetaObjectE@Base 1.50.0
 _ZN12MediaLibrary18processNextRequestEv@Base 1.50.0
 _ZN12MediaLibrary22areThereUpdateRequestsEv@Base 1.50.0
 _ZN12MediaLibrary23extractAndSaveAlbumInfoERK5QPairI7QString5QHashIi8QVariantEER14QSharedPointerI5MediaE@Base 1.50.0
 _ZN12MediaLibrary24extractAndSaveArtistInfoERK5QPairI7QString5QHashIi8QVariantEER14QSharedPointerI5MediaE@Base 1.50.0
 _ZN12MediaLibrary24processRemainingRequestsEv@Base 1.50.0
 _ZN12MediaLibrary25emitNewMediaWithMediaListEv@Base 1.50.0
 _ZN12MediaLibrary28emitNewAlbumOrArtistIfNeededE14QSharedPointerI5MediaE@Base 1.50.0
 _ZN12MediaLibrary3runEv@Base 1.50.0
 _ZN12MediaLibrary4initEv@Base 1.50.0
 _ZN12MediaLibrary8addMediaERK14QSharedPointerI5MediaE@Base 1.50.0
 _ZN12MediaLibrary8newMediaERK5QListI14QSharedPointerI8PmcMediaEE@Base 1.50.0
 _ZN12MediaLibrary9newAlbumsERK5QListI14QSharedPointerI8PmcAlbumEE@Base 1.50.0
 _ZN12MediaLibraryC1EP14MediaValidatorP7QObject@Base 1.50.0
 _ZN12MediaLibraryC2EP14MediaValidatorP7QObject@Base 1.50.0
 _ZN12MediaLibraryD0Ev@Base 1.50.0
 _ZN12MediaLibraryD1Ev@Base 1.50.0
 _ZN12MediaLibraryD2Ev@Base 1.50.0
 _ZN12MediaPlayer211qt_metacallEN11QMetaObject4CallEiPPv@Base 1.50.0
 _ZN12MediaPlayer211qt_metacastEPKc@Base 1.50.0
 _ZN12MediaPlayer216staticMetaObjectE@Base 1.50.0
 _ZN12MediaPlayer2C1EP7QObject@Base 1.50.0
 _ZN12MediaPlayer2C2EP7QObject@Base 1.50.0
 _ZN12MediaPlayer2D0Ev@Base 1.50.0
 _ZN12MediaPlayer2D1Ev@Base 1.50.0
 _ZN12MediaPlayer2D2Ev@Base 1.50.0
 _ZN13BackendsModel11qt_metacallEN11QMetaObject4CallEiPPv@Base 1.50.0
 _ZN13BackendsModel11qt_metacastEPKc@Base 1.50.0
 _ZN13BackendsModel16staticMetaObjectE@Base 1.50.0
 _ZN13BackendsModel20loadBrowsingBackendsEv@Base 1.50.0
 _ZN13BackendsModelC1EP7QObject@Base 1.50.0
 _ZN13BackendsModelC2EP7QObject@Base 1.50.0
 _ZN13BackendsModelD0Ev@Base 1.50.0
 _ZN13BackendsModelD1Ev@Base 1.50.0
 _ZN13BackendsModelD2Ev@Base 1.50.0
 _ZN13PlaylistModel11qt_metacallEN11QMetaObject4CallEiPPv@Base 1.50.0
 _ZN13PlaylistModel11qt_metacastEPKc@Base 1.50.0
 _ZN13PlaylistModel12loadFromFileERK7QString@Base 1.50.0
 _ZN13PlaylistModel12playPreviousEv@Base 1.50.0
 _ZN13PlaylistModel12savePlaylistEv@Base 1.50.0
 _ZN13PlaylistModel13addToPlaylistERK11QStringList@Base 1.50.0
 _ZN13PlaylistModel13addToPlaylistERK7QString@Base 1.50.0
 _ZN13PlaylistModel13clearPlaylistEv@Base 1.50.0
 _ZN13PlaylistModel13randomChangedEv@Base 1.50.0
 _ZN13PlaylistModel15setCurrentIndexEi@Base 1.50.0
 _ZN13PlaylistModel15setPlaylistNameERK7QString@Base 1.50.0
 _ZN13PlaylistModel16addAllToPlaylistERK11QStringList@Base 1.50.0
 _ZN13PlaylistModel16staticMetaObjectE@Base 1.50.0
 _ZN13PlaylistModel17currentUrlChangedEv@Base 1.50.0
 _ZN13PlaylistModel17resetCurrentIndexEv@Base 1.50.0
 _ZN13PlaylistModel18getUrlofFirstIndexEv@Base 1.50.0
 _ZN13PlaylistModel18removeFromPlaylistERKi@Base 1.50.0
 _ZN13PlaylistModel19currentIndexChangedEv@Base 1.50.0
 _ZN13PlaylistModel19playlistItemUpdatedEv@Base 1.50.0
 _ZN13PlaylistModel19playlistNameChangedEv@Base 1.50.0
 _ZN13PlaylistModel21removeCurrentPlaylistERK7QString@Base 1.50.0
 _ZN13PlaylistModel22processCommandLineArgsEPK11QStringList@Base 1.50.0
 _ZN13PlaylistModel23switchToDefaultPlaylistEv@Base 1.50.0
 _ZN13PlaylistModel30clearPlaylistWithoutModelResetEv@Base 1.50.0
 _ZN13PlaylistModel4playEi@Base 1.50.0
 _ZN13PlaylistModel7shuffleEv@Base 1.50.0
 _ZN13PlaylistModel8moveItemEii@Base 1.50.0
 _ZN13PlaylistModel8playNextEv@Base 1.50.0
 _ZN13PlaylistModelC1EP7QObject@Base 1.50.0
 _ZN13PlaylistModelC2EP7QObject@Base 1.50.0
 _ZN13PlaylistModelD0Ev@Base 1.50.0
 _ZN13PlaylistModelD1Ev@Base 1.50.0
 _ZN13PlaylistModelD2Ev@Base 1.50.0
 _ZN13PmcImageCache11qt_metacallEN11QMetaObject4CallEiPPv@Base 1.50.0
 _ZN13PmcImageCache11qt_metacastEPKc@Base 1.50.0
 _ZN13PmcImageCache13addAlbumCoverERK7QStringRK6QImage@Base 1.50.0
 _ZN13PmcImageCache14addArtistCoverERK7QStringRK6QImage@Base 1.50.0
 _ZN13PmcImageCache16staticMetaObjectE@Base 1.50.0
 _ZN13PmcImageCache17addMediaFileCoverERK7QStringRK6QImage@Base 1.50.0
 _ZN13PmcImageCache18fileIdentificationE@Base 1.50.0
 _ZN13PmcImageCache19albumIdentificationE@Base 1.50.0
 _ZN13PmcImageCache20artistIdentificationE@Base 1.50.0
 _ZN13PmcImageCache20imageIdForAlbumCoverERK7QString@Base 1.50.0
 _ZN13PmcImageCache21imageIdForArtistCoverERK7QString@Base 1.50.0
 _ZN13PmcImageCache24imageIdForMediaFileCoverERK7QString@Base 1.50.0
 _ZN13PmcImageCache8addImageERK7QStringRK6QImage@Base 1.50.0
 _ZN13PmcImageCacheC1Ev@Base 1.50.0
 _ZN13PmcImageCacheC2Ev@Base 1.50.0
 _ZN13PmcImageCacheD0Ev@Base 1.50.0
 _ZN13PmcImageCacheD1Ev@Base 1.50.0
 _ZN13PmcImageCacheD2Ev@Base 1.50.0
 _ZN14BackendsLoader11qt_metacallEN11QMetaObject4CallEiPPv@Base 1.50.0
 _ZN14BackendsLoader11qt_metacastEPKc@Base 1.50.0
 _ZN14BackendsLoader16staticMetaObjectE@Base 1.50.0
 _ZN14BackendsLoaderC1EP7QObject@Base 1.50.0
 _ZN14BackendsLoaderC2EP7QObject@Base 1.50.0
 _ZN14BackendsLoaderD0Ev@Base 1.50.0
 _ZN14BackendsLoaderD1Ev@Base 1.50.0
 _ZN14BackendsLoaderD2Ev@Base 1.50.0
 _ZN14MediaValidator11qt_metacallEN11QMetaObject4CallEiPPv@Base 1.50.0
 _ZN14MediaValidator11qt_metacastEPKc@Base 1.50.0
 _ZN14MediaValidator16staticMetaObjectE@Base 1.50.0
 _ZN14MediaValidator17fileWithUrlExistsERK7QString@Base 1.50.0
 _ZN14MediaValidatorC1EP7QObject@Base 1.50.0
 _ZN14MediaValidatorC2EP7QObject@Base 1.50.0
 _ZN14MediaValidatorD0Ev@Base 1.50.0
 _ZN14MediaValidatorD1Ev@Base 1.50.0
 _ZN14MediaValidatorD2Ev@Base 1.50.0
 _ZN15QDBusObjectPathD1Ev@Base 1.50.0
 _ZN15QDBusObjectPathD2Ev@Base 1.50.0
 _ZN16FilterMediaModel11qt_metacallEN11QMetaObject4CallEiPPv@Base 1.50.0
 _ZN16FilterMediaModel11qt_metacastEPKc@Base 1.50.0
 _ZN16FilterMediaModel12clearFiltersEb@Base 1.50.0
 _ZN16FilterMediaModel16staticMetaObjectE@Base 1.50.0
 _ZN16FilterMediaModel9addFilterEiRK8QVariant@Base 1.50.0
 _ZN16FilterMediaModel9setFilterEiRK8QVariant@Base 1.50.0
 _ZN16FilterMediaModelC1EP7QObject@Base 1.50.0
 _ZN16FilterMediaModelC2EP7QObject@Base 1.50.0
 _ZN16FilterMediaModelD0Ev@Base 1.50.0
 _ZN16FilterMediaModelD1Ev@Base 1.50.0
 _ZN16FilterMediaModelD2Ev@Base 1.50.0
 _ZN16PmcMetadataModel10showAlbumsEv@Base 1.50.0
 _ZN16PmcMetadataModel10showArtistEv@Base 1.50.0
 _ZN16PmcMetadataModel11qt_metacallEN11QMetaObject4CallEiPPv@Base 1.50.0
 _ZN16PmcMetadataModel11qt_metacastEPKc@Base 1.50.0
 _ZN16PmcMetadataModel11showPreviewERK9KFileItemRK7QPixmap@Base 1.50.0
 _ZN16PmcMetadataModel11updateModelEv@Base 1.50.0
 _ZN16PmcMetadataModel12fetchPreviewERK4QUrlRK11QModelIndex@Base 1.50.0
 _ZN16PmcMetadataModel12mediaUpdatedEv@Base 1.50.0
 _ZN16PmcMetadataModel12queryStartedEv@Base 1.50.0
 _ZN16PmcMetadataModel12signalUpdateERK8QVariantRK7QString@Base 1.50.0
 _ZN16PmcMetadataModel13fetchMetadataEv@Base 1.50.0
 _ZN16PmcMetadataModel13previewFailedERK9KFileItem@Base 1.50.0
 _ZN16PmcMetadataModel13queryFinishedEv@Base 1.50.0
 _ZN16PmcMetadataModel13showMediaTypeEN11MediaCenter9MediaTypeE@Base 1.50.0
 _ZN16PmcMetadataModel14delayedPreviewEv@Base 1.50.0
 _ZN16PmcMetadataModel14handleNewMediaERK5QListI14QSharedPointerI8PmcMediaEE@Base 1.50.0
 _ZN16PmcMetadataModel15handleNewAlbumsERK5QListI14QSharedPointerI8PmcAlbumEE@Base 1.50.0
 _ZN16PmcMetadataModel16handleNewArtistsERK5QListI14QSharedPointerI9PmcArtistEE@Base 1.50.0
 _ZN16PmcMetadataModel16staticMetaObjectE@Base 1.50.0
 (optional=templinst)_ZN16PmcMetadataModel20albumOrArtistUpdatedI8PmcAlbumEEvPKT_@Base 1.50.0
 (optional=templinst)_ZN16PmcMetadataModel20albumOrArtistUpdatedI9PmcArtistEEvPKT_@Base 1.50.0
 _ZN16PmcMetadataModel20setDefaultDecorationERK7QString@Base 1.50.0
 (optional=templinst)_ZN16PmcMetadataModel24handleNewAlbumsOrArtistsI8PmcAlbumEEvRK5QListI14QSharedPointerIT_EE@Base 1.50.0
 (optional=templinst)_ZN16PmcMetadataModel24handleNewAlbumsOrArtistsI9PmcArtistEEvRK5QListI14QSharedPointerIT_EE@Base 1.50.0
 _ZN16PmcMetadataModelC1EP7QObjectP12MediaLibrary@Base 1.50.0
 _ZN16PmcMetadataModelC2EP7QObjectP12MediaLibrary@Base 1.50.0
 _ZN16PmcMetadataModelD0Ev@Base 1.50.0
 _ZN16PmcMetadataModelD1Ev@Base 1.50.0
 _ZN16PmcMetadataModelD2Ev@Base 1.50.0
 _ZN16SingletonFactory9instancesE@Base 1.50.0
 _ZN16SubtitleProvider11processFileEv@Base 1.50.0
 _ZN16SubtitleProvider11qt_metacallEN11QMetaObject4CallEiPPv@Base 1.50.0
 _ZN16SubtitleProvider11qt_metacastEPKc@Base 1.50.0
 _ZN16SubtitleProvider11setFilenameERK4QUrl@Base 1.50.0
 _ZN16SubtitleProvider12subtitleTimeEv@Base 1.50.0
 _ZN16SubtitleProvider15setSubtitleTimeERKx@Base 1.50.0
 _ZN16SubtitleProvider15subtitleChangedEv@Base 1.50.0
 _ZN16SubtitleProvider16staticMetaObjectE@Base 1.50.0
 _ZN16SubtitleProvider19subtitleTimeChangedEv@Base 1.50.0
 _ZN16SubtitleProvider23computeAndStoreSubtitleEx@Base 1.50.0
 _ZN16SubtitleProvider8filenameEv@Base 1.50.0
 _ZN16SubtitleProvider8subtitleEv@Base 1.50.0
 _ZN16SubtitleProviderD0Ev@Base 1.50.0
 _ZN16SubtitleProviderD1Ev@Base 1.50.0
 _ZN16SubtitleProviderD2Ev@Base 1.50.0
 _ZN17IconImageProvider13requestPixmapERK7QStringP5QSizeRKS3_@Base 1.50.0
 _ZN17IconImageProvider20identificationStringE@Base 1.50.0
 _ZN17IconImageProviderC1Ev@Base 1.50.0
 _ZN17IconImageProviderC2Ev@Base 1.50.0
 _ZN17IconImageProviderD0Ev@Base 1.50.0
 _ZN17IconImageProviderD1Ev@Base 1.50.0
 _ZN17IconImageProviderD2Ev@Base 1.50.0
 _ZN17ThumbnailProvider11qt_metacallEN11QMetaObject4CallEiPPv@Base 1.50.0
 _ZN17ThumbnailProvider11qt_metacastEPKc@Base 1.50.0
 _ZN17ThumbnailProvider12gotThumbnailERK7QString@Base 1.50.0
 _ZN17ThumbnailProvider12hasThumbnailERK7QString@Base 1.50.0
 _ZN17ThumbnailProvider13loadThumbnailERK4QUrlRK5QSize@Base 1.50.0
 _ZN17ThumbnailProvider13requestPixmapERK7QStringP5QSizeRKS3_@Base 1.50.0
 _ZN17ThumbnailProvider14loadThumbnailsERK5QListI4QUrlERK5QSize@Base 1.50.0
 _ZN17ThumbnailProvider14processPreviewERK9KFileItemRK7QPixmap@Base 1.50.0
 _ZN17ThumbnailProvider16staticMetaObjectE@Base 1.50.0
 _ZN17ThumbnailProviderC1EP7QObject@Base 1.50.0
 _ZN17ThumbnailProviderC2EP7QObject@Base 1.50.0
 _ZN17ThumbnailProviderD0Ev@Base 1.50.0
 _ZN17ThumbnailProviderD1Ev@Base 1.50.0
 _ZN17ThumbnailProviderD2Ev@Base 1.50.0
 _ZN18MediaPlayer2Player10emitSeekedEi@Base 1.50.0
 _ZN18MediaPlayer2Player11SetPositionERK15QDBusObjectPathx@Base 1.50.0
 _ZN18MediaPlayer2Player11qt_metacallEN11QMetaObject4CallEiPPv@Base 1.50.0
 _ZN18MediaPlayer2Player11qt_metacastEPKc@Base 1.50.0
 _ZN18MediaPlayer2Player12setPmcStatusEN11RuntimeData9PmcStatusE@Base 1.50.0
 _ZN18MediaPlayer2Player15setCurrentTrackE7QString@Base 1.50.0
 _ZN18MediaPlayer2Player16staticMetaObjectE@Base 1.50.0
 _ZN18MediaPlayer2Player19setPropertyPositionEi@Base 1.50.0
 _ZN18MediaPlayer2Player21setMediaPlayerPresentEi@Base 1.50.0
 _ZN18MediaPlayer2Player22signalPropertiesChangeERK7QStringRK8QVariant@Base 1.50.0
 _ZN18MediaPlayer2Player7setRateEd@Base 1.50.0
 _ZN18MediaPlayer2Player9PlayPauseEv@Base 1.50.0
 _ZN18MediaPlayer2Player9setVolumeEd@Base 1.50.0
 _ZN18MediaPlayer2PlayerC1EP7QObject@Base 1.50.0
 _ZN18MediaPlayer2PlayerC2EP7QObject@Base 1.50.0
 _ZN18MediaPlayer2PlayerD0Ev@Base 1.50.0
 _ZN18MediaPlayer2PlayerD1Ev@Base 1.50.0
 _ZN18MediaPlayer2PlayerD2Ev@Base 1.50.0
 _ZN18MediaSourcesLoader11qt_metacallEN11QMetaObject4CallEiPPv@Base 1.50.0
 _ZN18MediaSourcesLoader11qt_metacastEPKc@Base 1.50.0
 _ZN18MediaSourcesLoader16staticMetaObjectE@Base 1.50.0
 _ZN18MediaSourcesLoader4loadEv@Base 1.50.0
 _ZN18MediaSourcesLoaderC1EP7QObject@Base 1.50.0
 _ZN18MediaSourcesLoaderC2EP7QObject@Base 1.50.0
 _ZN18MediaSourcesLoaderD0Ev@Base 1.50.0
 _ZN18MediaSourcesLoaderD1Ev@Base 1.50.0
 _ZN18MediaSourcesLoaderD2Ev@Base 1.50.0
 _ZN19FilterPlaylistModel11qt_metacallEN11QMetaObject4CallEiPPv@Base 1.50.0
 _ZN19FilterPlaylistModel11qt_metacastEPKc@Base 1.50.0
 _ZN19FilterPlaylistModel15setCurrentIndexEi@Base 1.50.0
 _ZN19FilterPlaylistModel15setFilterStringERK7QString@Base 1.50.0
 _ZN19FilterPlaylistModel16staticMetaObjectE@Base 1.50.0
 _ZN19FilterPlaylistModel19currentIndexChangedEv@Base 1.50.0
 _ZN19FilterPlaylistModel19filterStringChangedEv@Base 1.50.0
 _ZN19FilterPlaylistModel19playFromSourceModelEi@Base 1.50.0
 _ZN19FilterPlaylistModel19sourcePlaylistModelEv@Base 1.50.0
 _ZN19FilterPlaylistModel21removeFromSourceModelEi@Base 1.50.0
 _ZN19FilterPlaylistModel22setSourcePlaylistModelEP7QObject@Base 1.50.0
 _ZN19FilterPlaylistModel26sourcePlaylistModelChangedEv@Base 1.50.0
 _ZN19FilterPlaylistModelC1EP7QObject@Base 1.50.0
 _ZN19FilterPlaylistModelC2EP7QObject@Base 1.50.0
 _ZN19FilterPlaylistModelD0Ev@Base 1.50.0
 _ZN19FilterPlaylistModelD1Ev@Base 1.50.0
 _ZN19FilterPlaylistModelD2Ev@Base 1.50.0
 _ZN19PmcCoverArtProvider12requestImageERK7QStringP5QSizeRKS3_@Base 1.50.0
 _ZN19PmcCoverArtProvider20identificationStringE@Base 1.50.0
 _ZN19PmcCoverArtProvider24qmlImageUriForAlbumCoverERK7QString@Base 1.50.0
 _ZN19PmcCoverArtProvider25qmlImageUriForArtistCoverERK7QString@Base 1.50.0
 _ZN19PmcCoverArtProvider28qmlImageUriForMediaFileCoverERK7QString@Base 1.50.0
 _ZN19PmcCoverArtProviderC1Ev@Base 1.50.0
 _ZN19PmcCoverArtProviderC2Ev@Base 1.50.0
 _ZN19PmcCoverArtProviderD0Ev@Base 1.50.0
 _ZN19PmcCoverArtProviderD1Ev@Base 1.50.0
 _ZN19PmcCoverArtProviderD2Ev@Base 1.50.0
 _ZN21MediaPlayer2Tracklist10TrackAddedE4QMapI7QString8QVariantE15QDBusObjectPath@Base 1.50.0
 _ZN21MediaPlayer2Tracklist11RemoveTrackERK15QDBusObjectPath@Base 1.50.0
 _ZN21MediaPlayer2Tracklist11qt_metacallEN11QMetaObject4CallEiPPv@Base 1.50.0
 _ZN21MediaPlayer2Tracklist11qt_metacastEPKc@Base 1.50.0
 _ZN21MediaPlayer2Tracklist12TrackRemovedE15QDBusObjectPath@Base 1.50.0
 _ZN21MediaPlayer2Tracklist13resetTrackIdsEv@Base 1.50.0
 _ZN21MediaPlayer2Tracklist16rowsMovedInModelERK11QModelIndexiiS2_i@Base 1.50.0
 _ZN21MediaPlayer2Tracklist16staticMetaObjectE@Base 1.50.0
 _ZN21MediaPlayer2Tracklist17GetTracksMetadataERK5QListI15QDBusObjectPathE@Base 1.50.0
 _ZN21MediaPlayer2Tracklist19rowsInsertedInModelERK11QModelIndexii@Base 1.50.0
 _ZN21MediaPlayer2Tracklist20TrackMetadataChangedE15QDBusObjectPath4QMapI7QString8QVariantE@Base 1.50.0
 _ZN21MediaPlayer2Tracklist20rowsRemovedFromModelERK11QModelIndexii@Base 1.50.0
 _ZN21MediaPlayer2Tracklist4GoToERK15QDBusObjectPath@Base 1.50.0
 _ZN21MediaPlayer2Tracklist8AddTrackERK7QStringRK15QDBusObjectPathb@Base 1.50.0
 _ZN21MediaPlayer2TracklistC1EP13PlaylistModelP7QObject@Base 1.50.0
 _ZN21MediaPlayer2TracklistC2EP13PlaylistModelP7QObject@Base 1.50.0
 _ZN21MediaPlayer2TracklistD0Ev@Base 1.50.0
 _ZN21MediaPlayer2TracklistD1Ev@Base 1.50.0
 _ZN21MediaPlayer2TracklistD2Ev@Base 1.50.0
 _ZN21MultiplePlaylistModel11qt_metacallEN11QMetaObject4CallEiPPv@Base 1.50.0
 _ZN21MultiplePlaylistModel11qt_metacastEPKc@Base 1.50.0
 _ZN21MultiplePlaylistModel16staticMetaObjectE@Base 1.50.0
 _ZN21MultiplePlaylistModel16switchToPlaylistERK7QString@Base 1.50.0
 _ZN21MultiplePlaylistModel17createNewPlaylistERK7QString@Base 1.50.0
 _ZN21MultiplePlaylistModel19currentIndexChangedEv@Base 1.50.0
 _ZN21MultiplePlaylistModel21removeCurrentPlaylistEv@Base 1.50.0
 _ZN21MultiplePlaylistModel23setPlaylistModelAddressEP7QObject@Base 1.50.0
 _ZN21MultiplePlaylistModel27playlistModelAddressChangedEv@Base 1.50.0
 _ZN21MultiplePlaylistModelC1EP7QObject@Base 1.50.0
 _ZN21MultiplePlaylistModelC2EP7QObject@Base 1.50.0
 _ZN21MultiplePlaylistModelD0Ev@Base 1.50.0
 _ZN21MultiplePlaylistModelD1Ev@Base 1.50.0
 _ZN21MultiplePlaylistModelD2Ev@Base 1.50.0
 _ZN6Mpris211qt_metacallEN11QMetaObject4CallEiPPv@Base 1.50.0
 _ZN6Mpris211qt_metacastEPKc@Base 1.50.0
 _ZN6Mpris213getMetadataOfERK7QString@Base 1.50.0
 _ZN6Mpris213getMetadataOfERK7QStringS2_@Base 1.50.0
 _ZN6Mpris216staticMetaObjectE@Base 1.50.0
 _ZN6Mpris217getCurrentTrackIdEv@Base 1.50.0
 _ZN6Mpris221getMediaPlayer2PlayerEv@Base 1.50.0
 _ZN6Mpris2C1EP13PlaylistModelP7QObject@Base 1.50.0
 _ZN6Mpris2C2EP13PlaylistModelP7QObject@Base 1.50.0
 _ZN6Mpris2D0Ev@Base 1.50.0
 _ZN6Mpris2D1Ev@Base 1.50.0
 _ZN6Mpris2D2Ev@Base 1.50.0
 _ZN8PmcAlbum11qt_metacallEN11QMetaObject4CallEiPPv@Base 1.50.0
 _ZN8PmcAlbum11qt_metacastEPKc@Base 1.50.0
 _ZN8PmcAlbum16staticMetaObjectE@Base 1.50.0
 _ZN8PmcAlbum7updatedEv@Base 1.50.0
 _ZN8PmcAlbumC1ERK14QSharedPointerI5AlbumEP7QObject@Base 1.50.0
 _ZN8PmcAlbumC2ERK14QSharedPointerI5AlbumEP7QObject@Base 1.50.0
 _ZN8PmcAlbumD0Ev@Base 1.50.0
 _ZN8PmcAlbumD1Ev@Base 1.50.0
 _ZN8PmcAlbumD2Ev@Base 1.50.0
 _ZN8PmcMedia11qt_metacallEN11QMetaObject4CallEiPPv@Base 1.50.0
 _ZN8PmcMedia11qt_metacastEPKc@Base 1.50.0
 _ZN8PmcMedia16staticMetaObjectE@Base 1.50.0
 _ZN8PmcMedia7updatedEv@Base 1.50.0
 _ZN8PmcMedia8setMediaERK14QSharedPointerI5MediaE@Base 1.50.0
 _ZN8PmcMediaC1ERK7QStringP7QObject@Base 1.50.0
 _ZN8PmcMediaC2ERK7QStringP7QObject@Base 1.50.0
 _ZN8PmcMediaD0Ev@Base 1.50.0
 _ZN8PmcMediaD1Ev@Base 1.50.0
 _ZN8PmcMediaD2Ev@Base 1.50.0
 _ZN8PmcModel11nameChangedEv@Base 1.50.0
 _ZN8PmcModel11qt_metacallEN11QMetaObject4CallEiPPv@Base 1.50.0
 _ZN8PmcModel11qt_metacastEPKc@Base 1.50.0
 _ZN8PmcModel11setExpandedEb@Base 1.50.0
 _ZN8PmcModel12modelChangedEv@Base 1.50.0
 _ZN8PmcModel13isListChangedEv@Base 1.50.0
 _ZN8PmcModel13setHeaderTextERK7QString@Base 1.50.0
 _ZN8PmcModel13setParentDataERK4QMapIi8QVariantE@Base 1.50.0
 _ZN8PmcModel15expandedChangedEv@Base 1.50.0
 _ZN8PmcModel16staticMetaObjectE@Base 1.50.0
 _ZN8PmcModel17headerTextChangedEv@Base 1.50.0
 _ZN8PmcModel17parentDataChangedEv@Base 1.50.0
 _ZN8PmcModel17setSupportsSearchEb@Base 1.50.0
 _ZN8PmcModel21supportsSearchChangedEv@Base 1.50.0
 _ZN8PmcModel7setNameERK7QString@Base 1.50.0
 _ZN8PmcModel8setModelEP7QObject@Base 1.50.0
 _ZN8PmcModel9setIsListEb@Base 1.50.0
 _ZN8PmcModelC1EP7QObjectS1_@Base 1.50.0
 _ZN8PmcModelC2EP7QObjectS1_@Base 1.50.0
 _ZN8PmcModelD0Ev@Base 1.50.0
 _ZN8PmcModelD1Ev@Base 1.50.0
 _ZN8PmcModelD2Ev@Base 1.50.0
 _ZN8Settings11qt_metacallEN11QMetaObject4CallEiPPv@Base 1.50.0
 _ZN8Settings11qt_metacastEPKc@Base 1.50.0
 _ZN8Settings16staticMetaObjectE@Base 1.50.0
 _ZN8Settings4syncEv@Base 1.50.0
 _ZN8Settings6removeERK7QString@Base 1.50.0
 _ZN8Settings8setValueERK7QStringRK8QVariant@Base 1.50.0
 _ZN8SettingsC1EP7QObject@Base 1.50.0
 _ZN8SettingsC2EP7QObject@Base 1.50.0
 _ZN8SettingsD0Ev@Base 1.50.0
 _ZN8SettingsD1Ev@Base 1.50.0
 _ZN8SettingsD2Ev@Base 1.50.0
 _ZN9PmcArtist11qt_metacallEN11QMetaObject4CallEiPPv@Base 1.50.0
 _ZN9PmcArtist11qt_metacastEPKc@Base 1.50.0
 _ZN9PmcArtist16staticMetaObjectE@Base 1.50.0
 _ZN9PmcArtist7updatedEv@Base 1.50.0
 _ZN9PmcArtistC1ERK14QSharedPointerI6ArtistEP7QObject@Base 1.50.0
 _ZN9PmcArtistC2ERK14QSharedPointerI6ArtistEP7QObject@Base 1.50.0
 _ZN9PmcArtistD0Ev@Base 1.50.0
 _ZN9PmcArtistD1Ev@Base 1.50.0
 _ZN9PmcArtistD2Ev@Base 1.50.0
 _ZNK10ObjectPair10metaObjectEv@Base 1.50.0
 _ZNK10ObjectPair5firstEv@Base 1.50.0
 _ZNK10ObjectPair6secondEv@Base 1.50.0
 _ZNK11MediaCenter19AbstractMediaSource10metaObjectEv@Base 1.50.0
 _ZNK11MediaCenter19AbstractMediaSource12mediaLibraryEv@Base 1.50.0
 _ZNK11MediaCenter23AbstractBrowsingBackend10metaObjectEv@Base 1.50.0
 _ZNK11MediaCenter23AbstractBrowsingBackend18constructQmlSourceERK7QStringS3_S3_@Base 1.50.0
 _ZNK11MediaCenter23AbstractBrowsingBackend4busyEv@Base 1.50.0
 _ZNK11MediaCenter23AbstractBrowsingBackend4iconEv@Base 1.50.0
 _ZNK11MediaCenter23AbstractBrowsingBackend4nameEv@Base 1.50.0
 _ZNK11MediaCenter23AbstractBrowsingBackend7buttonsEv@Base 1.50.0
 _ZNK11MediaCenter23AbstractBrowsingBackend7commentEv@Base 1.50.0
 _ZNK11MediaCenter23AbstractBrowsingBackend8categoryEv@Base 1.50.0
 _ZNK11RuntimeData10metaObjectEv@Base 1.50.0
 _ZNK12MediaLibrary10getArtistsEv@Base 1.50.0
 _ZNK12MediaLibrary10metaObjectEv@Base 1.50.0
 _ZNK12MediaLibrary11mediaExistsERK7QString@Base 1.50.0
 _ZNK12MediaLibrary11mediaForShaERK7QString@Base 1.50.0
 _ZNK12MediaLibrary11mediaForUrlERK7QString@Base 1.50.0
 _ZNK12MediaLibrary8getMediaERK7QString@Base 1.50.0
 _ZNK12MediaLibrary9getAlbumsEv@Base 1.50.0
 _ZNK12MediaPlayer210metaObjectEv@Base 1.50.0
 _ZNK12MediaPlayer212DesktopEntryEv@Base 1.50.0
 _ZNK12MediaPlayer212HasTrackListEv@Base 1.50.0
 _ZNK12MediaPlayer218SupportedMimeTypesEv@Base 1.50.0
 _ZNK12MediaPlayer219SupportedUriSchemesEv@Base 1.50.0
 _ZNK12MediaPlayer24QuitEv@Base 1.50.0
 _ZNK12MediaPlayer25RaiseEv@Base 1.50.0
 _ZNK12MediaPlayer27CanQuitEv@Base 1.50.0
 _ZNK12MediaPlayer28CanRaiseEv@Base 1.50.0
 _ZNK12MediaPlayer28IdentityEv@Base 1.50.0
 _ZNK12MediaPlayer28raisePMCEv@Base 1.50.0
 _ZNK13BackendsModel10metaObjectEv@Base 1.50.0
 _ZNK13BackendsModel4dataERK11QModelIndexi@Base 1.50.0
 _ZNK13BackendsModel8rowCountERK11QModelIndex@Base 1.50.0
 _ZNK13PlaylistModel10currentUrlEv@Base 1.50.0
 _ZNK13PlaylistModel10metaObjectEv@Base 1.50.0
 _ZNK13PlaylistModel10saveToFileERK7QString@Base 1.50.0
 _ZNK13PlaylistModel12currentIndexEv@Base 1.50.0
 _ZNK13PlaylistModel12playlistNameEv@Base 1.50.0
 _ZNK13PlaylistModel15getPlaylistPathEv@Base 1.50.0
 _ZNK13PlaylistModel16playlistFilePathEv@Base 1.50.0
 _ZNK13PlaylistModel4dataERK11QModelIndexi@Base 1.50.0
 _ZNK13PlaylistModel8rowCountERK11QModelIndex@Base 1.50.0
 _ZNK13PmcImageCache10metaObjectEv@Base 1.50.0
 _ZNK13PmcImageCache18containsAlbumCoverERK7QString@Base 1.50.0
 _ZNK13PmcImageCache19containsArtistCoverERK7QString@Base 1.50.0
 _ZNK13PmcImageCache19containsImageWithIdERK7QString@Base 1.50.0
 _ZNK13PmcImageCache22containsMediaFileCoverERK7QString@Base 1.50.0
 _ZNK13PmcImageCache8getImageERK7QString@Base 1.50.0
 _ZNK14BackendsLoader10metaObjectEv@Base 1.50.0
 _ZNK14BackendsLoader7backendERK7QString@Base 1.50.0
 _ZNK14MediaValidator10metaObjectEv@Base 1.50.0
 _ZNK16FilterMediaModel10metaObjectEv@Base 1.50.0
 _ZNK16FilterMediaModel16filterAcceptsRowEiRK11QModelIndex@Base 1.50.0
 _ZNK16PmcMetadataModel10metaObjectEv@Base 1.50.0
 _ZNK16PmcMetadataModel11getAlbumArtERK7QStringS2_S2_@Base 1.50.0
 _ZNK16PmcMetadataModel12dataForAlbumEii@Base 1.50.0
 _ZNK16PmcMetadataModel12dataForMediaERK11QModelIndexi@Base 1.50.0
 _ZNK16PmcMetadataModel13dataForArtistEii@Base 1.50.0
 _ZNK16PmcMetadataModel14getArtistImageERK7QStringS2_@Base 1.50.0
 _ZNK16PmcMetadataModel20metadataValueForRoleERK11QModelIndexi@Base 1.50.0
 _ZNK16PmcMetadataModel4dataERK11QModelIndexi@Base 1.50.0
 _ZNK16PmcMetadataModel8rowCountERK11QModelIndex@Base 1.50.0
 _ZNK16SubtitleProvider10metaObjectEv@Base 1.50.0
 _ZNK17ThumbnailProvider10metaObjectEv@Base 1.50.0
 _ZNK18MediaPlayer2Player10CanControlEv@Base 1.50.0
 _ZNK18MediaPlayer2Player10metaObjectEv@Base 1.50.0
 _ZNK18MediaPlayer2Player11MaximumRateEv@Base 1.50.0
 _ZNK18MediaPlayer2Player11MinimumRateEv@Base 1.50.0
 _ZNK18MediaPlayer2Player11rateChangedEd@Base 1.50.0
 _ZNK18MediaPlayer2Player12currentTrackEv@Base 1.50.0
 _ZNK18MediaPlayer2Player13CanGoPreviousEv@Base 1.50.0
 _ZNK18MediaPlayer2Player13volumeChangedEd@Base 1.50.0
 _ZNK18MediaPlayer2Player14PlaybackStatusEv@Base 1.50.0
 _ZNK18MediaPlayer2Player18mediaPlayerPresentEv@Base 1.50.0
 _ZNK18MediaPlayer2Player4NextEv@Base 1.50.0
 _ZNK18MediaPlayer2Player4PlayEv@Base 1.50.0
 _ZNK18MediaPlayer2Player4RateEv@Base 1.50.0
 _ZNK18MediaPlayer2Player4SeekEx@Base 1.50.0
 _ZNK18MediaPlayer2Player4StopEv@Base 1.50.0
 _ZNK18MediaPlayer2Player4nextEv@Base 1.50.0
 _ZNK18MediaPlayer2Player4seekEi@Base 1.50.0
 _ZNK18MediaPlayer2Player4stopEv@Base 1.50.0
 _ZNK18MediaPlayer2Player5PauseEv@Base 1.50.0
 _ZNK18MediaPlayer2Player6SeekedEx@Base 1.50.0
 _ZNK18MediaPlayer2Player6VolumeEv@Base 1.50.0
 _ZNK18MediaPlayer2Player7CanPlayEv@Base 1.50.0
 _ZNK18MediaPlayer2Player7CanSeekEv@Base 1.50.0
 _ZNK18MediaPlayer2Player7OpenUriE7QString@Base 1.50.0
 _ZNK18MediaPlayer2Player7playUrlE4QUrl@Base 1.50.0
 _ZNK18MediaPlayer2Player8CanPauseEv@Base 1.50.0
 _ZNK18MediaPlayer2Player8MetadataEv@Base 1.50.0
 _ZNK18MediaPlayer2Player8PositionEv@Base 1.50.0
 _ZNK18MediaPlayer2Player8PreviousEv@Base 1.50.0
 _ZNK18MediaPlayer2Player8previousEv@Base 1.50.0
 _ZNK18MediaPlayer2Player9CanGoNextEv@Base 1.50.0
 _ZNK18MediaPlayer2Player9playPauseEv@Base 1.50.0
 _ZNK18MediaPlayer2Player9pmcStatusEv@Base 1.50.0
 _ZNK18MediaSourcesLoader10metaObjectEv@Base 1.50.0
 _ZNK19FilterPlaylistModel10metaObjectEv@Base 1.50.0
 _ZNK19FilterPlaylistModel12currentIndexEv@Base 1.50.0
 _ZNK19FilterPlaylistModel12filterStringEv@Base 1.50.0
 _ZNK19FilterPlaylistModel16filterAcceptsRowEiRK11QModelIndex@Base 1.50.0
 _ZNK19PmcCoverArtProvider29addAlbumCoverToCacheIfMissingERN6TagLib4MPEG4FileERK6QImage@Base 1.50.0
 _ZNK21MediaPlayer2Tracklist10metaObjectEv@Base 1.50.0
 _ZNK21MediaPlayer2Tracklist10urlOfIndexEi@Base 1.50.0
 _ZNK21MediaPlayer2Tracklist12currentIndexEv@Base 1.50.0
 _ZNK21MediaPlayer2Tracklist13CanEditTracksEv@Base 1.50.0
 _ZNK21MediaPlayer2Tracklist14currentTrackIdEv@Base 1.50.0
 _ZNK21MediaPlayer2Tracklist17TrackListReplacedE5QListI15QDBusObjectPathES1_@Base 1.50.0
 _ZNK21MediaPlayer2Tracklist6TracksEv@Base 1.50.0
 _ZNK21MultiplePlaylistModel10metaObjectEv@Base 1.50.0
 _ZNK21MultiplePlaylistModel12currentIndexEv@Base 1.50.0
 _ZNK21MultiplePlaylistModel20playlistModelAddressEv@Base 1.50.0
 _ZNK21MultiplePlaylistModel4dataERK11QModelIndexi@Base 1.50.0
 _ZNK21MultiplePlaylistModel8rowCountERK11QModelIndex@Base 1.50.0
 _ZNK6Mpris210metaObjectEv@Base 1.50.0
 _ZNK6Mpris28raisePMCEv@Base 1.50.0
 _ZNK8PmcAlbum10mediaCountEv@Base 1.50.0
 _ZNK8PmcAlbum10metaObjectEv@Base 1.50.0
 _ZNK8PmcAlbum11albumArtistEv@Base 1.50.0
 _ZNK8PmcAlbum4nameEv@Base 1.50.0
 _ZNK8PmcMedia10metaObjectEv@Base 1.50.0
 _ZNK8PmcMedia3shaEv@Base 1.50.0
 _ZNK8PmcMedia3urlEv@Base 1.50.0
 _ZNK8PmcMedia4typeEv@Base 1.50.0
 _ZNK8PmcMedia5albumEv@Base 1.50.0
 _ZNK8PmcMedia5genreEv@Base 1.50.0
 _ZNK8PmcMedia5titleEv@Base 1.50.0
 _ZNK8PmcMedia6artistEv@Base 1.50.0
 _ZNK8PmcMedia6ratingEv@Base 1.50.0
 _ZNK8PmcMedia8durationEv@Base 1.50.0
 _ZNK8PmcMedia8fileNameEv@Base 1.50.0
 _ZNK8PmcMedia9createdAtEv@Base 1.50.0
 _ZNK8PmcMedia9thumbnailEv@Base 1.50.0
 _ZNK8PmcModel10headerTextEv@Base 1.50.0
 _ZNK8PmcModel10metaObjectEv@Base 1.50.0
 _ZNK8PmcModel10parentDataEv@Base 1.50.0
 _ZNK8PmcModel14supportsSearchEv@Base 1.50.0
 _ZNK8PmcModel4nameEv@Base 1.50.0
 _ZNK8PmcModel5modelEv@Base 1.50.0
 _ZNK8PmcModel6isListEv@Base 1.50.0
 _ZNK8PmcModel8expandedEv@Base 1.50.0
 _ZNK8Settings10metaObjectEv@Base 1.50.0
 _ZNK8Settings5valueERK7QStringRK8QVariant@Base 1.50.0
 _ZNK8Settings8containsERK7QString@Base 1.50.0
 _ZNK9PmcArtist10mediaCountEv@Base 1.50.0
 _ZNK9PmcArtist10metaObjectEv@Base 1.50.0
 _ZNK9PmcArtist4nameEv@Base 1.50.0
 _ZTI10ObjectPair@Base 1.50.0
 _ZTI11RuntimeData@Base 1.50.0
 _ZTI12MediaLibrary@Base 1.50.0
 _ZTI12MediaPlayer2@Base 1.50.0
 _ZTI13BackendsModel@Base 1.50.0
 _ZTI13PlaylistModel@Base 1.50.0
 _ZTI13PmcImageCache@Base 1.50.0
 _ZTI14BackendsLoader@Base 1.50.0
 _ZTI14MediaValidator@Base 1.50.0
 _ZTI16FilterMediaModel@Base 1.50.0
 _ZTI16KSharedDataCache@Base 1.50.0
 _ZTI16PmcMetadataModel@Base 1.50.0
 _ZTI16SubtitleProvider@Base 1.50.0
 _ZTI17IconImageProvider@Base 1.50.0
 _ZTI17ThumbnailProvider@Base 1.50.0
 _ZTI18MediaPlayer2Player@Base 1.50.0
 _ZTI18MediaSourcesLoader@Base 1.50.0
 _ZTI19FilterPlaylistModel@Base 1.50.0
 _ZTI19PmcCoverArtProvider@Base 1.50.0
 _ZTI21MediaPlayer2Tracklist@Base 1.50.0
 _ZTI21MultiplePlaylistModel@Base 1.50.0
 _ZTI6Mpris2@Base 1.50.0
 _ZTI8PmcAlbum@Base 1.50.0
 _ZTI8PmcMedia@Base 1.50.0
 _ZTI8PmcModel@Base 1.50.0
 _ZTI8Settings@Base 1.50.0
 _ZTI9PmcArtist@Base 1.50.0
 _ZTIN11MediaCenter19AbstractMediaSourceE@Base 1.50.0
 _ZTIN11MediaCenter23AbstractBrowsingBackendE@Base 1.50.0
 _ZTS10ObjectPair@Base 1.50.0
 _ZTS11RuntimeData@Base 1.50.0
 _ZTS12MediaLibrary@Base 1.50.0
 _ZTS12MediaPlayer2@Base 1.50.0
 _ZTS13BackendsModel@Base 1.50.0
 _ZTS13PlaylistModel@Base 1.50.0
 _ZTS13PmcImageCache@Base 1.50.0
 _ZTS14BackendsLoader@Base 1.50.0
 _ZTS14MediaValidator@Base 1.50.0
 _ZTS16FilterMediaModel@Base 1.50.0
 _ZTS16KSharedDataCache@Base 1.50.0
 _ZTS16PmcMetadataModel@Base 1.50.0
 _ZTS16SubtitleProvider@Base 1.50.0
 _ZTS17IconImageProvider@Base 1.50.0
 _ZTS17ThumbnailProvider@Base 1.50.0
 _ZTS18MediaPlayer2Player@Base 1.50.0
 _ZTS18MediaSourcesLoader@Base 1.50.0
 _ZTS19FilterPlaylistModel@Base 1.50.0
 _ZTS19PmcCoverArtProvider@Base 1.50.0
 _ZTS21MediaPlayer2Tracklist@Base 1.50.0
 _ZTS21MultiplePlaylistModel@Base 1.50.0
 _ZTS6Mpris2@Base 1.50.0
 _ZTS8PmcAlbum@Base 1.50.0
 _ZTS8PmcMedia@Base 1.50.0
 _ZTS8PmcModel@Base 1.50.0
 _ZTS8Settings@Base 1.50.0
 _ZTS9PmcArtist@Base 1.50.0
 _ZTSN11MediaCenter19AbstractMediaSourceE@Base 1.50.0
 _ZTSN11MediaCenter23AbstractBrowsingBackendE@Base 1.50.0
 _ZTV10ObjectPair@Base 1.50.0
 _ZTV11RuntimeData@Base 1.50.0
 _ZTV12MediaLibrary@Base 1.50.0
 _ZTV12MediaPlayer2@Base 1.50.0
 _ZTV13BackendsModel@Base 1.50.0
 _ZTV13PlaylistModel@Base 1.50.0
 _ZTV13PmcImageCache@Base 1.50.0
 _ZTV14BackendsLoader@Base 1.50.0
 _ZTV14MediaValidator@Base 1.50.0
 _ZTV16FilterMediaModel@Base 1.50.0
 _ZTV16PmcMetadataModel@Base 1.50.0
 _ZTV16SubtitleProvider@Base 1.50.0
 _ZTV17IconImageProvider@Base 1.50.0
 _ZTV17ThumbnailProvider@Base 1.50.0
 _ZTV18MediaPlayer2Player@Base 1.50.0
 _ZTV18MediaSourcesLoader@Base 1.50.0
 _ZTV19FilterPlaylistModel@Base 1.50.0
 _ZTV19PmcCoverArtProvider@Base 1.50.0
 _ZTV21MediaPlayer2Tracklist@Base 1.50.0
 _ZTV21MultiplePlaylistModel@Base 1.50.0
 _ZTV6Mpris2@Base 1.50.0
 _ZTV8PmcAlbum@Base 1.50.0
 _ZTV8PmcMedia@Base 1.50.0
 _ZTV8PmcModel@Base 1.50.0
 _ZTV8Settings@Base 1.50.0
 _ZTV9PmcArtist@Base 1.50.0
 _ZTVN11MediaCenter19AbstractMediaSourceE@Base 1.50.0
 _ZTVN11MediaCenter23AbstractBrowsingBackendE@Base 1.50.0
 (c++)"non-virtual thunk to ThumbnailProvider::requestPixmap(QString const&, QSize*, QSize const&)@Base" 1.50.0
 (c++)"non-virtual thunk to ThumbnailProvider::~ThumbnailProvider()@Base" 1.50.0
